; Function Attrs: mustprogress nounwind uwtable
define hidden noundef double @_ZNK11G1Analytics24predict_in_unit_intervalEPK12TruncatedSeq(ptr nocapture noundef nonnull readonly align 8 dereferenceable(2048) %0, ptr noundef nonnull %1) local_unnamed_addr #1 align 2 {
  %3 = load ptr, ptr %0, align 8
  %4 = tail call noundef double @_ZNK6AbsSeq4davgEv(ptr noundef nonnull align 8 dereferenceable(56) %1) #7
  %5 = load double, ptr %3, align 8
  %6 = tail call noundef double @_ZNK6AbsSeq3dsdEv(ptr noundef nonnull align 8 dereferenceable(56) %1) #7
  %7 = getelementptr inbounds i8, ptr %1, i64 8
  %8 = load i32, ptr %7, align 8
  %9 = icmp slt i32 %8, 5
  br i1 %9, label %10, label %_ZNK13G1Predictions24predict_in_unit_intervalEPK12TruncatedSeq.exit

10:                                               ; preds = %2
  %11 = tail call noundef double @_ZNK6AbsSeq4davgEv(ptr noundef nonnull align 8 dereferenceable(56) %1) #7
  %12 = sub nsw i32 5, %8
  %13 = uitofp nneg i32 %12 to double
  %14 = fmul double %11, %13
  %15 = fmul double %14, 5.000000e-01
  %16 = fcmp ogt double %15, %6
  %17 = select i1 %16, double %15, double %6
  br label %_ZNK13G1Predictions24predict_in_unit_intervalEPK12TruncatedSeq.exit

_ZNK13G1Predictions24predict_in_unit_intervalEPK12TruncatedSeq.exit: ; preds = %2, %10
  %.0.i.i.i = phi double [ %17, %10 ], [ %6, %2 ]
  %18 = tail call noundef double @llvm.fmuladd.f64(double %5, double %.0.i.i.i, double %4)
  %19 = fcmp ogt double %18, 0.000000e+00
  %20 = select i1 %19, double %18, double 0.000000e+00
  %21 = fcmp olt double %20, 1.000000e+00
  %22 = select i1 %21, double %20, double 1.000000e+00
  ret double %22
}